target datalayout = "e-m:e-p270:32:32-p271:32:32-p272:64:64-i64:64-i128:128-f80:128-n8:16:32:64-S128"
target triple = "x86_64-pc-linux-gnu"

%struct.Abc_TtStore_t = type { i32, i32, i32, ptr }

; Function Attrs: nounwind uwtable
define void @freeArray(ptr noundef %0, ptr noundef %1) #0 {
  %3 = alloca ptr, align 8
  %4 = alloca ptr, align 8
  %5 = alloca i32, align 4
  store ptr %0, ptr %3, align 8, !tbaa !19
  store ptr %1, ptr %4, align 8, !tbaa !14
  call void @llvm.lifetime.start.p0(i64 4, ptr %5) #7
  store i32 0, ptr %5, align 4, !tbaa !8
  br label %6

6:                                                ; preds = %18, %2
  %7 = load i32, ptr %5, align 4, !tbaa !8
  %8 = load ptr, ptr %4, align 8, !tbaa !14
  %9 = getelementptr inbounds nuw %struct.Abc_TtStore_t, ptr %8, i32 0, i32 2
  %10 = load i32, ptr %9, align 8, !tbaa !15
  %11 = icmp slt i32 %7, %10
  br i1 %11, label %12, label %21

12:                                               ; preds = %6
  %13 = load ptr, ptr %3, align 8, !tbaa !19
  %14 = load i32, ptr %5, align 4, !tbaa !8
  %15 = sext i32 %14 to i64
  %16 = getelementptr inbounds ptr, ptr %13, i64 %15
  %17 = load ptr, ptr %16, align 8, !tbaa !3
  call void @free(ptr noundef %17) #7
  br label %18

18:                                               ; preds = %12
  %19 = load i32, ptr %5, align 4, !tbaa !8
  %20 = add nsw i32 %19, 1
  store i32 %20, ptr %5, align 4, !tbaa !8
  br label %6, !llvm.loop !28

21:                                               ; preds = %6
  %22 = load ptr, ptr %3, align 8, !tbaa !19
  call void @free(ptr noundef %22) #7
  call void @llvm.lifetime.end.p0(i64 4, ptr %5) #7
  ret void
}